; Function Attrs: nounwind uwtable
define hidden zeroext i1 @SDL_HasRectIntersection_REAL(ptr noundef readonly captures(address_is_null) %0, ptr noundef readonly captures(address_is_null) %1) local_unnamed_addr #0 {
  %.not = icmp eq ptr %0, null
  br i1 %.not, label %3, label %5

3:                                                ; preds = %2
  %4 = tail call zeroext i1 (ptr, ...) @SDL_SetError_REAL(ptr noundef nonnull @.str, ptr noundef nonnull @.str.6) #5
  br label %SDL_RectEmpty.exit.thread

5:                                                ; preds = %2
  %.not47 = icmp eq ptr %1, null
  br i1 %.not47, label %6, label %8

6:                                                ; preds = %5
  %7 = tail call zeroext i1 (ptr, ...) @SDL_SetError_REAL(ptr noundef nonnull @.str, ptr noundef nonnull @.str.7) #5
  br label %SDL_RectEmpty.exit.thread

8:                                                ; preds = %5
  %9 = load i32, ptr %0, align 4
  %10 = add i32 %9, -1073741823
  %or.cond.i = icmp ult i32 %10, -2147483646
  br i1 %or.cond.i, label %SDL_RectCanOverflow.exit.thread, label %11

11:                                               ; preds = %8
  %12 = getelementptr inbounds nuw i8, ptr %0, i64 4
  %13 = load i32, ptr %12, align 4
  %14 = add i32 %13, -1073741823
  %or.cond9.i = icmp ult i32 %14, -2147483646
  br i1 %or.cond9.i, label %SDL_RectCanOverflow.exit.thread, label %15

15:                                               ; preds = %11
  %16 = getelementptr inbounds nuw i8, ptr %0, i64 8
  %17 = load i32, ptr %16, align 4
  %18 = icmp sgt i32 %17, 1073741822
  br i1 %18, label %SDL_RectCanOverflow.exit.thread, label %SDL_RectCanOverflow.exit

SDL_RectCanOverflow.exit:                         ; preds = %15
  %19 = getelementptr inbounds nuw i8, ptr %0, i64 12
  %20 = load i32, ptr %19, align 4
  %21 = icmp sgt i32 %20, 1073741822
  br i1 %21, label %SDL_RectCanOverflow.exit.thread, label %22

22:                                               ; preds = %SDL_RectCanOverflow.exit
  %23 = load i32, ptr %1, align 4
  %24 = add i32 %23, -1073741823
  %or.cond.i53 = icmp ult i32 %24, -2147483646
  br i1 %or.cond.i53, label %SDL_RectCanOverflow.exit.thread, label %25

25:                                               ; preds = %22
  %26 = getelementptr inbounds nuw i8, ptr %1, i64 4
  %27 = load i32, ptr %26, align 4
  %28 = add i32 %27, -1073741823
  %or.cond9.i54 = icmp ult i32 %28, -2147483646
  br i1 %or.cond9.i54, label %SDL_RectCanOverflow.exit.thread, label %29

29:                                               ; preds = %25
  %30 = getelementptr inbounds nuw i8, ptr %1, i64 8
  %31 = load i32, ptr %30, align 4
  %32 = icmp sgt i32 %31, 1073741822
  br i1 %32, label %SDL_RectCanOverflow.exit.thread, label %SDL_RectCanOverflow.exit56

SDL_RectCanOverflow.exit56:                       ; preds = %29
  %33 = getelementptr inbounds nuw i8, ptr %1, i64 12
  %34 = load i32, ptr %33, align 4
  %35 = icmp sgt i32 %34, 1073741822
  br i1 %35, label %SDL_RectCanOverflow.exit.thread, label %37

SDL_RectCanOverflow.exit.thread:                  ; preds = %22, %25, %29, %8, %11, %15, %SDL_RectCanOverflow.exit56, %SDL_RectCanOverflow.exit
  %36 = tail call zeroext i1 (ptr, ...) @SDL_SetError_REAL(ptr noundef nonnull @.str.8) #5
  br label %SDL_RectEmpty.exit.thread

37:                                               ; preds = %SDL_RectCanOverflow.exit56
  %38 = icmp slt i32 %17, 1
  %39 = icmp slt i32 %20, 1
  %or.cond = or i1 %38, %39
  %40 = icmp slt i32 %31, 1
  %or.cond59 = or i1 %or.cond, %40
  %41 = icmp slt i32 %34, 1
  %or.cond60 = or i1 %or.cond59, %41
  br i1 %or.cond60, label %SDL_RectEmpty.exit.thread, label %42

42:                                               ; preds = %37
  %43 = add nsw i32 %17, %9
  %44 = add nsw i32 %31, %23
  %spec.select = tail call i32 @llvm.smax.i32(i32 %23, i32 %9)
  %.0 = tail call i32 @llvm.smin.i32(i32 %44, i32 %43)
  %.not48 = icmp sgt i32 %.0, %spec.select
  br i1 %.not48, label %45, label %SDL_RectEmpty.exit.thread

45:                                               ; preds = %42
  %46 = add nsw i32 %20, %13
  %47 = add nsw i32 %34, %27
  %spec.select50 = tail call i32 @llvm.smax.i32(i32 %27, i32 %13)
  %.1 = tail call i32 @llvm.smin.i32(i32 %47, i32 %46)
  %.not49 = icmp sgt i32 %.1, %spec.select50
  br label %SDL_RectEmpty.exit.thread

SDL_RectEmpty.exit.thread:                        ; preds = %37, %45, %42, %SDL_RectCanOverflow.exit.thread, %6, %3
  %.036 = phi i1 [ false, %SDL_RectCanOverflow.exit.thread ], [ false, %6 ], [ false, %3 ], [ false, %42 ], [ %.not49, %45 ], [ false, %37 ]
  ret i1 %.036
}